target datalayout = "e-m:e-p270:32:32-p271:32:32-p272:64:64-i64:64-i128:128-f80:128-n8:16:32:64-S128"
target triple = "x86_64-pc-linux-gnu"

%struct.print_stream = type { ptr, ptr }
%struct.output_text = type { i8, ptr, i8, ptr, i32 }
%struct.color_t = type { i16, i16, i16 }

@print_line_color_text.spaces = internal global [160 x i8] zeroinitializer, align 16
@.str.4 = private unnamed_addr constant [6 x i8] c"UTF-8\00", align 1
@.str.5 = private unnamed_addr constant [2 x i8] c"?\00", align 1
@.str.6 = private unnamed_addr constant [17 x i8] c"\1B[38;2;%u;%u;%um\00", align 1
@.str.7 = private unnamed_addr constant [17 x i8] c"\1B[48;2;%u;%u;%um\00", align 1
@.str.8 = private unnamed_addr constant [6 x i8] c"%s\0A%s\00", align 1
@.str.9 = private unnamed_addr constant [4 x i8] c"\1B[K\00", align 1
@.str.10 = private unnamed_addr constant [5 x i8] c"\1B[0m\00", align 1

; Function Attrs: null_pointer_is_valid sspstrong uwtable
define internal void @do_color_eol_24bit_escape(ptr noundef %0) #0 {
  %2 = alloca ptr, align 8
  %3 = alloca ptr, align 8
  %4 = alloca ptr, align 8
  store ptr %0, ptr %2, align 8
  call void @llvm.lifetime.start.p0(i64 8, ptr %3) #11
  %5 = load ptr, ptr %2, align 8
  %6 = getelementptr inbounds nuw %struct.print_stream, ptr %5, i32 0, i32 1
  %7 = load ptr, ptr %6, align 8
  store ptr %7, ptr %3, align 8
  call void @llvm.lifetime.start.p0(i64 8, ptr %4) #11
  %8 = load ptr, ptr %3, align 8
  %9 = getelementptr inbounds nuw %struct.output_text, ptr %8, i32 0, i32 1
  %10 = load ptr, ptr %9, align 8
  store ptr %10, ptr %4, align 8
  %11 = load ptr, ptr %4, align 8
  %12 = call i32 (ptr, i32, ptr, ...) @__fprintf_chk(ptr noundef %11, i32 noundef 2, ptr noundef @.str.8, ptr noundef @.str.9, ptr noundef @.str.10)
  call void @llvm.lifetime.end.p0(i64 8, ptr %4) #11
  call void @llvm.lifetime.end.p0(i64 8, ptr %3) #11
  ret void
}

; Function Attrs: null_pointer_is_valid sspstrong uwtable
define internal void @set_color_24bit_escape(ptr noundef %0, ptr noundef %1, ptr noundef %2) #0 {
  %4 = alloca ptr, align 8
  %5 = alloca ptr, align 8
  %6 = alloca ptr, align 8
  store ptr %0, ptr %4, align 8
  store ptr %1, ptr %5, align 8
  store ptr %2, ptr %6, align 8
  %7 = load ptr, ptr %5, align 8
  %8 = icmp ne ptr %7, null
  br i1 %8, label %9, label %30

9:                                                ; preds = %3
  %10 = load ptr, ptr %4, align 8
  %11 = load ptr, ptr %5, align 8
  %12 = getelementptr inbounds nuw %struct.color_t, ptr %11, i32 0, i32 0
  %13 = load i16, ptr %12, align 2
  %14 = zext i16 %13 to i32
  %15 = ashr i32 %14, 8
  %16 = and i32 %15, 255
  %17 = load ptr, ptr %5, align 8
  %18 = getelementptr inbounds nuw %struct.color_t, ptr %17, i32 0, i32 1
  %19 = load i16, ptr %18, align 2
  %20 = zext i16 %19 to i32
  %21 = ashr i32 %20, 8
  %22 = and i32 %21, 255
  %23 = load ptr, ptr %5, align 8
  %24 = getelementptr inbounds nuw %struct.color_t, ptr %23, i32 0, i32 2
  %25 = load i16, ptr %24, align 2
  %26 = zext i16 %25 to i32
  %27 = ashr i32 %26, 8
  %28 = and i32 %27, 255
  %29 = call i32 (ptr, i32, ptr, ...) @__fprintf_chk(ptr noundef %10, i32 noundef 2, ptr noundef @.str.6, i32 noundef %16, i32 noundef %22, i32 noundef %28)
  br label %30

30:                                               ; preds = %9, %3
  %31 = load ptr, ptr %6, align 8
  %32 = icmp ne ptr %31, null
  br i1 %32, label %33, label %54

33:                                               ; preds = %30
  %34 = load ptr, ptr %4, align 8
  %35 = load ptr, ptr %6, align 8
  %36 = getelementptr inbounds nuw %struct.color_t, ptr %35, i32 0, i32 0
  %37 = load i16, ptr %36, align 2
  %38 = zext i16 %37 to i32
  %39 = ashr i32 %38, 8
  %40 = and i32 %39, 255
  %41 = load ptr, ptr %6, align 8
  %42 = getelementptr inbounds nuw %struct.color_t, ptr %41, i32 0, i32 1
  %43 = load i16, ptr %42, align 2
  %44 = zext i16 %43 to i32
  %45 = ashr i32 %44, 8
  %46 = and i32 %45, 255
  %47 = load ptr, ptr %6, align 8
  %48 = getelementptr inbounds nuw %struct.color_t, ptr %47, i32 0, i32 2
  %49 = load i16, ptr %48, align 2
  %50 = zext i16 %49 to i32
  %51 = ashr i32 %50, 8
  %52 = and i32 %51, 255
  %53 = call i32 (ptr, i32, ptr, ...) @__fprintf_chk(ptr noundef %34, i32 noundef 2, ptr noundef @.str.7, i32 noundef %40, i32 noundef %46, i32 noundef %52)
  br label %54

54:                                               ; preds = %33, %30
  ret void
}

; Function Attrs: alwaysinline nounwind
define internal ptr @memset.inline(ptr %0, i32 %1, i64 %2) #8 {
  %4 = alloca ptr, align 8
  %5 = alloca i32, align 4
  %6 = alloca i64, align 8
  store ptr %0, ptr %4, align 8
  store i32 %1, ptr %5, align 4
  store i64 %2, ptr %6, align 8
  %7 = load ptr, ptr %4, align 8
  %8 = load i32, ptr %5, align 4
  %9 = load i64, ptr %6, align 8
  %10 = load ptr, ptr %4, align 8
  %11 = call i64 @llvm.objectsize.i64.p0(ptr %10, i1 false, i1 true, i1 true)
  %12 = call ptr @__memset_chk(ptr noundef %7, i32 noundef %8, i64 noundef %9, i64 noundef %11) #11
  ret ptr %12
}

; Function Attrs: null_pointer_is_valid sspstrong uwtable
define internal zeroext i1 @print_line_color_text(ptr noundef %0, i32 noundef %1, ptr noundef %2, ptr noundef %3, ptr noundef %4) #0 {
  %6 = alloca i1, align 1
  %7 = alloca ptr, align 8
  %8 = alloca i32, align 4
  %9 = alloca ptr, align 8
  %10 = alloca ptr, align 8
  %11 = alloca ptr, align 8
  %12 = alloca i64, align 8
  %13 = alloca ptr, align 8
  %14 = alloca i32, align 4
  %15 = alloca i8, align 1
  %16 = alloca i32, align 4
  %17 = alloca ptr, align 8
  store ptr %0, ptr %7, align 8
  store i32 %1, ptr %8, align 4
  store ptr %2, ptr %9, align 8
  store ptr %3, ptr %10, align 8
  store ptr %4, ptr %11, align 8
  call void @llvm.lifetime.start.p0(i64 8, ptr %12) #11
  call void @llvm.lifetime.start.p0(i64 8, ptr %13) #11
  %18 = load ptr, ptr %7, align 8
  %19 = getelementptr inbounds nuw %struct.print_stream, ptr %18, i32 0, i32 1
  %20 = load ptr, ptr %19, align 8
  store ptr %20, ptr %13, align 8
  call void @llvm.lifetime.start.p0(i64 4, ptr %14) #11
  call void @llvm.lifetime.start.p0(i64 1, ptr %15) #11
  %21 = load ptr, ptr %13, align 8
  %22 = getelementptr inbounds nuw %struct.output_text, ptr %21, i32 0, i32 2
  %23 = load i8, ptr %22, align 8, !range !6, !noundef !7
  %24 = trunc i8 %23 to i1
  br i1 %24, label %25, label %33

25:                                               ; preds = %5
  %26 = load ptr, ptr %10, align 8
  %27 = icmp ne ptr %26, null
  br i1 %27, label %31, label %28

28:                                               ; preds = %25
  %29 = load ptr, ptr %11, align 8
  %30 = icmp ne ptr %29, null
  br label %31

31:                                               ; preds = %28, %25
  %32 = phi i1 [ true, %25 ], [ %30, %28 ]
  br label %33

33:                                               ; preds = %31, %5
  %34 = phi i1 [ false, %5 ], [ %32, %31 ]
  %35 = zext i1 %34 to i8
  store i8 %35, ptr %15, align 1
  %36 = load i8, ptr @print_line_color_text.spaces, align 16
  %37 = icmp ne i8 %36, 0
  br i1 %37, label %40, label %38

38:                                               ; preds = %33
  %39 = call ptr @memset.inline(ptr noundef @print_line_color_text.spaces, i32 noundef 32, i64 noundef 160) #11
  br label %40

40:                                               ; preds = %38, %33
  %41 = load i8, ptr %15, align 1, !range !6, !noundef !7
  %42 = trunc i8 %41 to i1
  br i1 %42, label %43, label %61

43:                                               ; preds = %40
  %44 = load ptr, ptr %13, align 8
  %45 = getelementptr inbounds nuw %struct.output_text, ptr %44, i32 0, i32 4
  %46 = load i32, ptr %45, align 8
  switch i32 %46, label %60 [
    i32 0, label %60
    i32 1, label %47
  ]

47:                                               ; preds = %43
  %48 = load ptr, ptr %13, align 8
  %49 = getelementptr inbounds nuw %struct.output_text, ptr %48, i32 0, i32 1
  %50 = load ptr, ptr %49, align 8
  %51 = load ptr, ptr %10, align 8
  %52 = load ptr, ptr %11, align 8
  call void @set_color_24bit_escape(ptr noundef %50, ptr noundef %51, ptr noundef %52)
  %53 = load ptr, ptr %13, align 8
  %54 = getelementptr inbounds nuw %struct.output_text, ptr %53, i32 0, i32 1
  %55 = load ptr, ptr %54, align 8
  %56 = call i32 @ferror(ptr noundef %55) #11
  %57 = icmp ne i32 %56, 0
  br i1 %57, label %58, label %59

58:                                               ; preds = %47
  store i1 false, ptr %6, align 1
  store i32 1, ptr %16, align 4
  br label %144

59:                                               ; preds = %47
  br label %60

60:                                               ; preds = %43, %59, %43
  br label %61

61:                                               ; preds = %60, %40
  %62 = load i32, ptr %8, align 4
  %63 = mul i32 %62, 4
  store i32 %63, ptr %14, align 4
  %64 = load i32, ptr %14, align 4
  %65 = icmp ugt i32 %64, 160
  br i1 %65, label %66, label %67

66:                                               ; preds = %61
  store i32 160, ptr %14, align 4
  br label %67

67:                                               ; preds = %66, %61
  %68 = load i32, ptr %14, align 4
  %69 = zext i32 %68 to i64
  %70 = load ptr, ptr %13, align 8
  %71 = getelementptr inbounds nuw %struct.output_text, ptr %70, i32 0, i32 1
  %72 = load ptr, ptr %71, align 8
  %73 = call i64 @fwrite(ptr noundef @print_line_color_text.spaces, i64 noundef 1, i64 noundef %69, ptr noundef %72)
  store i64 %73, ptr %12, align 8
  %74 = load i64, ptr %12, align 8
  %75 = load i32, ptr %14, align 4
  %76 = zext i32 %75 to i64
  %77 = icmp eq i64 %74, %76
  br i1 %77, label %78, label %137

78:                                               ; preds = %67
  %79 = load ptr, ptr %13, align 8
  %80 = getelementptr inbounds nuw %struct.output_text, ptr %79, i32 0, i32 2
  %81 = load i8, ptr %80, align 8, !range !6, !noundef !7
  %82 = trunc i8 %81 to i1
  br i1 %82, label %83, label %110

83:                                               ; preds = %78
  %84 = load ptr, ptr %13, align 8
  %85 = getelementptr inbounds nuw %struct.output_text, ptr %84, i32 0, i32 3
  %86 = load ptr, ptr %85, align 8
  %87 = icmp ne ptr %86, null
  br i1 %87, label %88, label %110

88:                                               ; preds = %83
  call void @llvm.lifetime.start.p0(i64 8, ptr %17) #11
  %89 = load ptr, ptr %9, align 8
  %90 = load ptr, ptr %13, align 8
  %91 = getelementptr inbounds nuw %struct.output_text, ptr %90, i32 0, i32 3
  %92 = load ptr, ptr %91, align 8
  %93 = call noalias ptr @g_convert_with_fallback(ptr noundef %89, i64 noundef -1, ptr noundef %92, ptr noundef @.str.4, ptr noundef @.str.5, ptr noundef null, ptr noundef null, ptr noundef null)
  store ptr %93, ptr %17, align 8
  %94 = load ptr, ptr %17, align 8
  %95 = icmp ne ptr %94, null
  br i1 %95, label %96, label %103

96:                                               ; preds = %88
  %97 = load ptr, ptr %17, align 8
  %98 = load ptr, ptr %13, align 8
  %99 = getelementptr inbounds nuw %struct.output_text, ptr %98, i32 0, i32 1
  %100 = load ptr, ptr %99, align 8
  %101 = call i32 @fputs(ptr noundef %97, ptr noundef %100)
  %102 = load ptr, ptr %17, align 8
  call void @g_free(ptr noundef %102)
  br label %109

103:                                              ; preds = %88
  %104 = load ptr, ptr %9, align 8
  %105 = load ptr, ptr %13, align 8
  %106 = getelementptr inbounds nuw %struct.output_text, ptr %105, i32 0, i32 1
  %107 = load ptr, ptr %106, align 8
  %108 = call i32 @fputs(ptr noundef %104, ptr noundef %107)
  br label %109

109:                                              ; preds = %103, %96
  call void @llvm.lifetime.end.p0(i64 8, ptr %17) #11
  br label %116

110:                                              ; preds = %83, %78
  %111 = load ptr, ptr %9, align 8
  %112 = load ptr, ptr %13, align 8
  %113 = getelementptr inbounds nuw %struct.output_text, ptr %112, i32 0, i32 1
  %114 = load ptr, ptr %113, align 8
  %115 = call i32 @fputs(ptr noundef %111, ptr noundef %114)
  br label %116

116:                                              ; preds = %110, %109
  %117 = load i8, ptr %15, align 1, !range !6, !noundef !7
  %118 = trunc i8 %117 to i1
  br i1 %118, label %119, label %131

119:                                              ; preds = %116
  %120 = load ptr, ptr %13, align 8
  %121 = getelementptr inbounds nuw %struct.output_text, ptr %120, i32 0, i32 4
  %122 = load i32, ptr %121, align 8
  switch i32 %122, label %130 [
    i32 0, label %123
    i32 1, label %128
  ]

123:                                              ; preds = %119
  %124 = load ptr, ptr %13, align 8
  %125 = getelementptr inbounds nuw %struct.output_text, ptr %124, i32 0, i32 1
  %126 = load ptr, ptr %125, align 8
  %127 = call i32 @putc(i32 noundef 10, ptr noundef %126)
  br label %130

128:                                              ; preds = %119
  %129 = load ptr, ptr %7, align 8
  call void @do_color_eol_24bit_escape(ptr noundef %129)
  br label %130

130:                                              ; preds = %119, %128, %123
  br label %136

131:                                              ; preds = %116
  %132 = load ptr, ptr %13, align 8
  %133 = getelementptr inbounds nuw %struct.output_text, ptr %132, i32 0, i32 1
  %134 = load ptr, ptr %133, align 8
  %135 = call i32 @putc(i32 noundef 10, ptr noundef %134)
  br label %136

136:                                              ; preds = %131, %130
  br label %137

137:                                              ; preds = %136, %67
  %138 = load ptr, ptr %13, align 8
  %139 = getelementptr inbounds nuw %struct.output_text, ptr %138, i32 0, i32 1
  %140 = load ptr, ptr %139, align 8
  %141 = call i32 @ferror(ptr noundef %140) #11
  %142 = icmp ne i32 %141, 0
  %143 = xor i1 %142, true
  store i1 %143, ptr %6, align 1
  store i32 1, ptr %16, align 4
  br label %144

144:                                              ; preds = %137, %58
  call void @llvm.lifetime.end.p0(i64 1, ptr %15) #11
  call void @llvm.lifetime.end.p0(i64 4, ptr %14) #11
  call void @llvm.lifetime.end.p0(i64 8, ptr %13) #11
  call void @llvm.lifetime.end.p0(i64 8, ptr %12) #11
  %145 = load i1, ptr %6, align 1
  ret i1 %145
}