; Function Attrs: null_pointer_is_valid sspstrong uwtable
define internal noundef zeroext i1 @print_line_color_text(ptr noundef readonly captures(none) %0, i32 noundef %1, ptr noundef %2, ptr noundef readonly captures(address_is_null) %3, ptr noundef readonly captures(address_is_null) %4) #0 {
  %6 = getelementptr inbounds nuw i8, ptr %0, i64 8
  %7 = load ptr, ptr %6, align 8
  %8 = getelementptr inbounds nuw i8, ptr %7, i64 16
  %9 = load i8, ptr %8, align 8, !range !6, !noundef !7
  %10 = trunc nuw i8 %9 to i1
  br i1 %10, label %11, label %15

11:                                               ; preds = %5
  %12 = icmp ne ptr %3, null
  %13 = icmp ne ptr %4, null
  %14 = or i1 %12, %13
  br label %15

15:                                               ; preds = %11, %5
  %16 = phi i1 [ false, %5 ], [ %14, %11 ]
  %17 = load i8, ptr @print_line_color_text.spaces, align 16
  %.not = icmp eq i8 %17, 0
  br i1 %.not, label %18, label %19

18:                                               ; preds = %15
  tail call void @llvm.memset.p0.i64(ptr noundef nonnull align 16 dereferenceable(160) @print_line_color_text.spaces, i8 noundef 32, i64 noundef 160, i1 noundef false) #13
  br label %19

19:                                               ; preds = %18, %15
  br i1 %16, label %20, label %55

20:                                               ; preds = %19
  %21 = getelementptr inbounds nuw i8, ptr %7, i64 32
  %22 = load i32, ptr %21, align 8
  %cond = icmp eq i32 %22, 1
  br i1 %cond, label %23, label %55

23:                                               ; preds = %20
  %24 = getelementptr inbounds nuw i8, ptr %7, i64 8
  %25 = load ptr, ptr %24, align 8
  %.not.i = icmp eq ptr %3, null
  br i1 %.not.i, label %39, label %26

26:                                               ; preds = %23
  %27 = load i16, ptr %3, align 2
  %28 = lshr i16 %27, 8
  %29 = zext nneg i16 %28 to i32
  %30 = getelementptr inbounds nuw i8, ptr %3, i64 2
  %31 = load i16, ptr %30, align 2
  %32 = lshr i16 %31, 8
  %33 = zext nneg i16 %32 to i32
  %34 = getelementptr inbounds nuw i8, ptr %3, i64 4
  %35 = load i16, ptr %34, align 2
  %36 = lshr i16 %35, 8
  %37 = zext nneg i16 %36 to i32
  %38 = tail call i32 (ptr, i32, ptr, ...) @__fprintf_chk(ptr noundef %25, i32 noundef 2, ptr noundef nonnull @.str.6, i32 noundef %29, i32 noundef %33, i32 noundef %37)
  br label %39

39:                                               ; preds = %26, %23
  %.not11.i = icmp eq ptr %4, null
  br i1 %.not11.i, label %set_color_24bit_escape.exit, label %40

40:                                               ; preds = %39
  %41 = load i16, ptr %4, align 2
  %42 = lshr i16 %41, 8
  %43 = zext nneg i16 %42 to i32
  %44 = getelementptr inbounds nuw i8, ptr %4, i64 2
  %45 = load i16, ptr %44, align 2
  %46 = lshr i16 %45, 8
  %47 = zext nneg i16 %46 to i32
  %48 = getelementptr inbounds nuw i8, ptr %4, i64 4
  %49 = load i16, ptr %48, align 2
  %50 = lshr i16 %49, 8
  %51 = zext nneg i16 %50 to i32
  %52 = tail call i32 (ptr, i32, ptr, ...) @__fprintf_chk(ptr noundef %25, i32 noundef 2, ptr noundef nonnull @.str.7, i32 noundef %43, i32 noundef %47, i32 noundef %51)
  br label %set_color_24bit_escape.exit

set_color_24bit_escape.exit:                      ; preds = %39, %40
  %53 = load ptr, ptr %24, align 8
  %54 = tail call i32 @ferror(ptr noundef %53) #13
  %.not36 = icmp eq i32 %54, 0
  br i1 %.not36, label %55, label %94

55:                                               ; preds = %20, %set_color_24bit_escape.exit, %19
  %56 = shl i32 %1, 2
  %spec.store.select = tail call i32 @llvm.umin.i32(i32 %56, i32 160)
  %57 = zext nneg i32 %spec.store.select to i64
  %58 = getelementptr inbounds nuw i8, ptr %7, i64 8
  %59 = load ptr, ptr %58, align 8
  %60 = tail call i64 @fwrite(ptr noundef nonnull @print_line_color_text.spaces, i64 noundef 1, i64 noundef %57, ptr noundef %59)
  %61 = icmp eq i64 %60, %57
  br i1 %61, label %62, label %91

62:                                               ; preds = %55
  %63 = load i8, ptr %8, align 8, !range !6, !noundef !7
  %64 = trunc nuw i8 %63 to i1
  br i1 %64, label %65, label %75

65:                                               ; preds = %62
  %66 = getelementptr inbounds nuw i8, ptr %7, i64 24
  %67 = load ptr, ptr %66, align 8
  %.not37 = icmp eq ptr %67, null
  br i1 %.not37, label %75, label %68

68:                                               ; preds = %65
  %69 = tail call noalias ptr @g_convert_with_fallback(ptr noundef %2, i64 noundef -1, ptr noundef nonnull %67, ptr noundef nonnull @.str.4, ptr noundef nonnull @.str.5, ptr noundef null, ptr noundef null, ptr noundef null)
  %.not38 = icmp eq ptr %69, null
  %70 = load ptr, ptr %58, align 8
  br i1 %.not38, label %73, label %71

71:                                               ; preds = %68
  %72 = tail call i32 @fputs(ptr noundef nonnull %69, ptr noundef %70)
  tail call void @g_free(ptr noundef nonnull %69)
  br label %78

73:                                               ; preds = %68
  %74 = tail call i32 @fputs(ptr noundef %2, ptr noundef %70)
  br label %78

75:                                               ; preds = %65, %62
  %76 = load ptr, ptr %58, align 8
  %77 = tail call i32 @fputs(ptr noundef %2, ptr noundef %76)
  br label %78

78:                                               ; preds = %71, %73, %75
  br i1 %16, label %79, label %88

79:                                               ; preds = %78
  %80 = getelementptr inbounds nuw i8, ptr %7, i64 32
  %81 = load i32, ptr %80, align 8
  switch i32 %81, label %91 [
    i32 0, label %82
    i32 1, label %85
  ]

82:                                               ; preds = %79
  %83 = load ptr, ptr %58, align 8
  %84 = tail call i32 @putc(i32 noundef 10, ptr noundef %83)
  br label %91

85:                                               ; preds = %79
  %.val = load ptr, ptr %6, align 8
  %86 = getelementptr i8, ptr %.val, i64 8
  %.val.val = load ptr, ptr %86, align 8
  %87 = tail call i32 (ptr, i32, ptr, ...) @__fprintf_chk(ptr noundef %.val.val, i32 noundef 2, ptr noundef nonnull @.str.8, ptr noundef nonnull @.str.9, ptr noundef nonnull @.str.10)
  br label %91

88:                                               ; preds = %78
  %89 = load ptr, ptr %58, align 8
  %90 = tail call i32 @putc(i32 noundef 10, ptr noundef %89)
  br label %91

91:                                               ; preds = %88, %85, %82, %79, %55
  %92 = load ptr, ptr %58, align 8
  %93 = tail call i32 @ferror(ptr noundef %92) #13
  %.not39 = icmp eq i32 %93, 0
  br label %94

94:                                               ; preds = %set_color_24bit_escape.exit, %91
  %.0 = phi i1 [ %.not39, %91 ], [ false, %set_color_24bit_escape.exit ]
  ret i1 %.0
}